Certificate:
    Data:
        Version: 3 (0x2)
        Serial Number: 4660 (0x1234)
    Signature Algorithm: sha256WithRSAEncryption
        Issuer: C=DE, ST=Bremen, L=Bremen, O=Internet Widgits Pty Ltd, CN=Dushan Terzikj/emailAddress=d.terzikj@jacobs-university.de
        Validity
            Not Before: May 10 19:20:18 2019 GMT
            Not After : May  9 19:20:18 2020 GMT
        Subject: C=DE, ST=Bremen, O=Internet Widgits Pty Ltd, CN=Dushan Terzikj/emailAddress=d.terzikj@jacobs-university.de
        Subject Public Key Info:
            Public Key Algorithm: rsaEncryption
                Public-Key: (2048 bit)
                Modulus:
                    00:a9:d2:95:7e:58:8c:1b:db:ee:ef:16:ac:11:d0:
                    ea:12:04:00:6e:d8:a0:79:fe:4e:61:99:15:66:c2:
                    86:c2:ed:48:49:56:0a:04:d9:32:3b:4b:d6:42:59:
                    f9:34:e9:8f:59:39:03:30:72:cf:e7:a9:88:65:fb:
                    e5:24:41:c7:82:a6:8e:68:50:65:e3:f3:af:ad:a0:
                    39:0c:de:ba:da:bf:d7:1a:52:c6:c2:6a:87:b6:88:
                    b4:f1:54:6c:85:46:8a:ae:c9:1e:5f:31:56:22:ff:
                    0d:65:4f:d8:be:5a:4a:d0:c2:19:cc:d1:0f:d8:4a:
                    b0:64:96:09:6f:5e:fe:90:81:8a:f2:56:be:82:98:
                    d6:26:50:be:b3:04:68:d0:67:fd:14:5f:54:0b:c7:
                    70:95:72:ef:62:a4:b6:1b:46:9d:af:63:77:30:7b:
                    d6:24:b8:01:0d:04:ec:f2:0a:da:08:1f:e7:28:2d:
                    2d:4d:6c:ae:10:db:f4:f5:58:46:57:5c:8b:03:9d:
                    29:00:b9:ee:7d:9c:39:02:c5:06:2d:ef:62:95:3f:
                    da:be:ee:7c:f5:a0:f6:d0:21:71:4a:e4:04:38:5a:
                    81:b2:4d:05:2c:1c:54:c9:fe:d1:99:e5:e6:d1:88:
                    33:db:64:27:75:1c:c4:a0:0d:bf:b0:b2:18:2a:a9:
                    75:69
                Exponent: 65537 (0x10001)
        X509v3 extensions:
            X509v3 Basic Constraints: 
                CA:FALSE
            Netscape Comment: 
                OpenSSL Generated Certificate
            X509v3 Subject Key Identifier: 
                1A:C0:A5:B1:15:53:47:1F:81:13:87:7F:7F:10:92:31:08:BA:FC:DF
            X509v3 Authority Key Identifier: 
                keyid:1A:C0:A5:B1:15:53:47:1F:81:13:87:7F:7F:10:92:31:08:BA:FC:DF

    Signature Algorithm: sha256WithRSAEncryption
         38:4e:21:da:ef:07:c0:28:f4:d1:46:35:43:3b:b2:be:54:04:
         4b:21:d7:d8:e5:2b:ad:28:d2:fd:a2:46:16:40:3f:0c:57:02:
         39:ed:35:b0:8d:da:5b:af:61:67:a5:7f:3e:45:b8:18:26:05:
         a9:13:a5:e9:0e:04:2e:db:5a:74:98:06:f0:94:4a:37:76:0c:
         5d:33:87:46:32:93:73:83:61:6e:d7:91:83:1e:1a:ad:0f:6d:
         05:ec:d6:41:6d:ba:6b:d5:14:88:2a:6c:2d:3c:4b:d5:bc:d1:
         7c:ff:5f:fe:81:dd:8b:41:8a:2b:02:74:b4:61:ac:38:81:30:
         e2:0b:32:d4:0a:67:8b:2a:6d:41:c0:7e:a7:cb:7a:bc:4c:81:
         d1:f9:e7:4f:88:6c:b8:7a:b7:e6:03:7b:4b:37:54:68:69:1a:
         27:91:91:9b:b1:de:f6:be:72:ee:12:e8:a6:dd:ba:70:c0:8d:
         ee:b6:f4:c2:05:7f:ea:09:05:9b:84:ff:05:4e:0f:86:7d:64:
         7f:1a:77:f7:69:60:df:f2:4a:2f:c9:ca:5b:ac:cf:81:fa:3d:
         44:e6:85:2a:15:58:7b:cd:8b:27:68:c1:d9:f6:8e:91:43:76:
         60:1c:fe:8f:5a:b0:10:fb:54:86:82:b9:2e:32:11:c0:ef:50:
         f9:37:05:af
-----BEGIN CERTIFICATE-----
MIIEHDCCAwSgAwIBAgICEjQwDQYJKoZIhvcNAQELBQAwgZoxCzAJBgNVBAYTAkRF
MQ8wDQYDVQQIDAZCcmVtZW4xDzANBgNVBAcMBkJyZW1lbjEhMB8GA1UECgwYSW50
ZXJuZXQgV2lkZ2l0cyBQdHkgTHRkMRcwFQYDVQQDDA5EdXNoYW4gVGVyemlrajEt
MCsGCSqGSIb3DQEJARYeZC50ZXJ6aWtqQGphY29icy11bml2ZXJzaXR5LmRlMB4X
DTE5MDUxMDE5MjAxOFoXDTIwMDUwOTE5MjAxOFowgYkxCzAJBgNVBAYTAkRFMQ8w
DQYDVQQIDAZCcmVtZW4xITAfBgNVBAoMGEludGVybmV0IFdpZGdpdHMgUHR5IEx0
ZDEXMBUGA1UEAwwORHVzaGFuIFRlcnppa2oxLTArBgkqhkiG9w0BCQEWHmQudGVy
emlrakBqYWNvYnMtdW5pdmVyc2l0eS5kZTCCASIwDQYJKoZIhvcNAQEBBQADggEP
ADCCAQoCggEBAKnSlX5YjBvb7u8WrBHQ6hIEAG7YoHn+TmGZFWbChsLtSElWCgTZ
MjtL1kJZ+TTpj1k5AzByz+epiGX75SRBx4KmjmhQZePzr62gOQzeutq/1xpSxsJq
h7aItPFUbIVGiq7JHl8xViL/DWVP2L5aStDCGczRD9hKsGSWCW9e/pCBivJWvoKY
1iZQvrMEaNBn/RRfVAvHcJVy72KkthtGna9jdzB71iS4AQ0E7PIK2ggf5ygtLU1s
rhDb9PVYRldciwOdKQC57n2cOQLFBi3vYpU/2r7ufPWg9tAhcUrkBDhagbJNBSwc
VMn+0Znl5tGIM9tkJ3UcxKANv7CyGCqpdWkCAwEAAaN7MHkwCQYDVR0TBAIwADAs
BglghkgBhvhCAQ0EHxYdT3BlblNTTCBHZW5lcmF0ZWQgQ2VydGlmaWNhdGUwHQYD
VR0OBBYEFBrApbEVU0cfgROHf38QkjEIuvzfMB8GA1UdIwQYMBaAFBrApbEVU0cf
gROHf38QkjEIuvzfMA0GCSqGSIb3DQEBCwUAA4IBAQA4TiHa7wfAKPTRRjVDO7K+
VARLIdfY5SutKNL9okYWQD8MVwI57TWwjdpbr2FnpX8+RbgYJgWpE6XpDgQu21p0
mAbwlEo3dgxdM4dGMpNzg2Fu15GDHhqtD20F7NZBbbpr1RSIKmwtPEvVvNF8/1/+
gd2LQYorAnS0Yaw4gTDiCzLUCmeLKm1BwH6ny3q8TIHR+edPiGy4erfmA3tLN1Ro
aRonkZGbsd72vnLuEuim3bpwwI3utvTCBX/qCQWbhP8FTg+GfWR/Gnf3aWDf8kov
ycpbrM+B+j1E5oUqFVh7zYsnaMHZ9o6RQ3ZgHP6PWrAQ+1SGgrkuMhHA71D5NwWv
-----END CERTIFICATE-----
